(lp0
(lp1
a(lp2
a(lp3
a(lp4
a(lp5
I151
aI152
aI7
aI202
aI257
aI32
aI237
aI222
aI43
aI7
aI222
aI43
aI109
aI147
aI36
aI254
aI19
aI149
aI6
aI108
aI109
aI180
aI167
aI8
aI119
aI43
aI27
aI51
aI8
aI61
aag5
ag5
a(lp6
I151
aI6
aI217
aI90
aI7
aI20
aI126
aI150
aI163
aI25
aI221
aI216
aI108
aI109
aI20
aI90
aI43
aI7
aI108
aI109
aI218
aI119
aI178
aI131
aI106
aI199
aI7
aI217
aI248
aI242
aI32
aI99
aI226
aI212
aI226
aI257
aI22
aI102
aI108
aI46
aI98
aI257
aI129
aI139
aI138
aag6
ag6
ag6
ag6
ag6
ag6
ag6
a(lp7
I151
aI152
aI7
aI103
aI26
aI210
aI216
aI257
aI66
aI221
aI108
aI109
aI20
aI207
aI43
aI7
aI108
aI109
aI218
aI119
aI178
aI131
aI106
aI199
aag7
ag7
ag7
ag7
a(lp8
I217
aI90
aI7
aI34
aI120
aI220
aI46
aI195
aI257
aI174
aI7
aI257
aI196
aI232
aI108
aI229
aI7
aI242
aI95
aI223
aI150
aI90
aI190
aI106
aI160
aI124
aI234
aag8
ag8
ag8
ag8
a(lp9
I151
aI109
aI111
aI19
aI7
aI216
aI141
aI37
aI238
aI62
aI83
aI257
aI7
aI202
aI75
aI6
aI108
aI146
aI170
aI7
aI242
aI95
aI223
aI150
aI90
aI190
aI106
aI160
aI124
aI234
aag9
ag9
ag9
ag9
ag9
a(lp10
I151
aI6
aI217
aI90
aI7
aI217
aI180
aI76
aI7
aI111
aI109
aI105
aI83
aI20
aI74
aI226
aI37
aI21
aI226
aI175
aI208
aI20
aI195
aI7
aI217
aI248
aI108
aI46
aI81
aI8
aI50
aI112
aI115
aI106
aI12
aI57
aag10
ag10
ag10
ag10
ag10
ag10
ag10
ag10
ag10
ag10
ag10
ag10
ag10
ag10
ag10
ag10
ag10
ag10
ag10
ag10
ag10
ag10
ag10
a(lp11
I151
aI217
aI238
aI201
aI8
aI147
aI90
aI7
aI250
aI37
aI40
aI104
aI220
aI46
aI50
aI8
aI81
aI77
aI202
aI216
aI257
aI46
aI25
aI81
aI233
aI258
aI115
aI77
aI7
aI34
aI108
aI6
aI160
aI118
aI225
aI109
aI157
aI12
aI57
aag11
ag11
ag11
ag11
ag11
ag11
ag11
ag11
ag11
ag11
ag11
ag11
ag11
ag11
ag11
ag11
ag11
ag11
ag11
ag11
ag11
ag11
ag11
ag11
ag11
ag11
ag11
a(lp12
I217
aI90
aI216
aI257
aI116
aI22
aI132
aI178
aI7
aI149
aI111
aI109
aI238
aI167
aI27
aI144
aI100
aI162
aI7
aI34
aI108
aI6
aI242
aI95
aI20
aI249
aI183
aI150
aI231
aI132
aI178
aI216
aI242
aI32
aI209
aI258
aI55
aI250
aI128
aag12
ag12
ag12
ag12
a(lp13
I151
aI257
aI66
aI116
aI22
aI132
aI178
aI19
aI111
aI109
aI106
aI230
aI148
aI29
aI238
aI167
aI27
aI144
aI100
aI162
aI7
aI34
aI108
aI6
aI242
aI95
aI20
aI249
aI183
aI150
aI231
aI132
aI178
aI216
aI242
aI32
aI209
aI258
aI55
aI250
aI128
aag13
ag13
a(lp14
I217
aI90
aI7
aI103
aI26
aI209
aI218
aI55
aI80
aI111
aI236
aI7
aI217
aI248
aI108
aI94
aI223
aI150
aI90
aI190
aI29
aI184
aI7
aI223
aI150
aI93
aI55
aI47
aI37
aI253
aI2
aag14
ag14
ag14
ag14
a(lp15
I151
aI6
aI217
aI229
aI36
aI7
aI20
aI126
aI150
aI100
aI162
aI122
aI226
aI48
aI173
aI186
aI156
aI38
aI130
aI219
aI58
aI7
aI217
aI248
aI108
aI94
aI223
aI150
aI90
aI190
aI29
aI184
aI7
aI223
aI150
aI93
aI55
aI47
aI37
aI253
aI2
aag15
ag15
a(lp16
I151
aI7
aI217
aI90
aI7
aI220
aI196
aI37
aI70
aI7
aI74
aI109
aI105
aI83
aI218
aI49
aI226
aI52
aI218
aI176
aI4
aI177
aI52
aI5
aI150
aI218
aI171
aI7
aI108
aI94
aI73
aI106
aI113
aI3
aI199
aI226
aI72
aI24
aI160
aI172
aI134
aI20
aI206
aI176
aI188
aag16
ag16
ag16
ag16
a(lp17
I151
aI103
aI194
aI7
aI220
aI66
aI95
aI219
aI161
aI74
aI7
aI74
aI109
aI105
aI83
aI218
aI49
aI226
aI52
aI218
aI176
aI4
aI177
aI52
aI5
aI150
aI218
aI171
aI7
aI108
aI94
aI73
aI106
aI113
aI3
aI199
aI226
aI72
aI24
aI160
aI172
aI134
aI20
aI206
aI176
aI188
aag17
ag17
a(lp18
I256
aI7
aI103
aI39
aI220
aI25
aI95
aI241
aI7
aI203
aI55
aI46
aI136
aI219
aI240
aI191
aI19
aI34
aI108
aI6
aI162
aI46
aI69
aI8
aI179
aI187
aI219
aI241
aI156
aag18
ag18
ag18
ag18
a(lp19
I151
aI217
aI20
aI165
aI7
aI220
aI66
aI95
aI241
aI7
aI108
aI94
aI20
aI10
aI255
aI189
aI241
aI216
aI55
aI46
aI238
aI69
aI187
aI83
aI156
aag19
ag19
a(lp20
I103
aI46
aI98
aI257
aI33
aI218
aI108
aI172
aI216
aI257
aI239
aI226
aI45
aa(lp21
I65
aI257
aI95
aI30
aI173
aI153
aI92
aI148
aI216
aI242
aI46
aI89
aI23
aI29
aI252
aI227
aI153
aI19
aa(lp22
I209
aI7
aI103
aI46
aI33
aI20
aI168
aI83
aI258
aI205
aI145
aI137
aI34
aI12
aI166
aa(lp23
I256
aI7
aI103
aI95
aI218
aI193
aI251
aI133
aI148
aI7
aI246
aI46
aI103
aI64
aI111
aI106
aI258
aI198
aa(lp24
I209
aI103
aI46
aI7
aI121
aI133
aI197
aI257
aI160
aI169
aI123
aa(lp25
I209
aI6
aI103
aI46
aI87
aI20
aI182
aI8
aI181
aI67
aI83
aI257
aI191
aI148
aI224
aI160
aI156
aI211
aa(lp26
I209
aI7
aI103
aI46
aI33
aI20
aI135
aI145
aI137
aI34
aI12
aI166
aa(lp27
I150
aI54
aI257
aI46
aI235
aI108
aI83
aI258
aI155
aI173
aI8
aI115
aI200
aI7
aI121
aI133
aI42
aI28
aI31
aI83
aI257
aI191
aI35
aI237
aI160
aI156
aI211
aa(lp28
I150
aI54
aI257
aI46
aI235
aI108
aI83
aI258
aI155
aI173
aI8
aI115
aI200
aI7
aI121
aI133
aI42
aI28
aI31
aI83
aI257
aI191
aI35
aI237
aI160
aI156
aI211
aa.