(lp0
(lp1
I245
aI43
aI150
aI53
aI32
aI257
aI237
aI19
aI108
aa(lp2
I245
aI43
aI150
aI53
aI32
aI257
aI237
aI19
aI257
aa(lp3
I245
aI43
aI150
aI53
aI32
aI257
aI237
aI19
aI257
aI24
aa(lp4
I245
aI43
aI150
aI53
aI32
aI257
aI237
aI19
aI247
aI71
aa(lp5
I245
aI43
aI150
aI53
aI32
aI257
aI237
aI19
aI159
aa(lp6
I245
aI43
aI150
aI53
aI32
aI257
aI237
aI19
aI158
aI44
aa(lp7
I245
aI43
aI150
aI53
aI32
aI257
aI237
aI19
aI216
aI154
aa(lp8
I95
aI257
aI97
aI22
aI108
aI19
aI256
aa(lp9
I95
aI257
aI97
aI22
aI108
aI19
aI59
aa(lp10
I95
aI257
aI97
aI22
aI108
aI19
aI254
aI117
aa(lp11
I95
aI257
aI97
aI22
aI108
aI19
aI90
aa(lp12
I95
aI257
aI97
aI22
aI108
aI19
aI46
aa(lp13
I95
aI257
aI97
aI22
aI108
aI19
aI97
aI150
aa(lp14
I95
aI257
aI97
aI22
aI108
aI19
aI150
aI54
aa(lp15
I95
aI257
aI97
aI22
aI108
aI19
aI91
aa(lp16
I95
aI257
aI97
aI22
aI108
aI19
aI146
aa(lp17
I95
aI257
aI97
aI22
aI108
aI19
aI143
aa(lp18
I95
aI257
aI97
aI22
aI108
aI19
aI96
aa(lp19
I95
aI257
aI97
aI22
aI108
aI19
aI68
aa(lp20
I95
aI257
aI97
aI22
aI108
aI19
aI66
aI95
aa(lp21
I102
aI109
aI218
aI192
aI195
aI150
aI158
aI44
aI19
aI256
aI6
aI90
aa(lp22
I102
aI109
aI218
aI192
aI195
aI150
aI158
aI44
aI19
aI238
aI90
aa(lp23
I102
aI109
aI218
aI192
aI195
aI150
aI158
aI44
aI19
aI152
aa(lp24
I102
aI109
aI218
aI192
aI195
aI150
aI158
aI44
aI19
aI202
aI202
aa(lp25
I102
aI109
aI218
aI192
aI195
aI150
aI158
aI44
aI19
aI146
aI110
aa(lp26
I102
aI109
aI218
aI192
aI195
aI150
aI158
aI44
aI19
aI146
aI6
aI147
aI90
aa(lp27
I102
aI109
aI218
aI192
aI195
aI150
aI158
aI44
aI19
aI238
aI36
aa(lp28
I102
aI109
aI218
aI192
aI195
aI150
aI158
aI44
aI19
aI127
aa(lp29
I102
aI109
aI218
aI192
aI195
aI150
aI158
aI44
aI19
aI36
aa(lp30
I102
aI109
aI218
aI192
aI195
aI150
aI158
aI44
aI19
aI214
aa(lp31
I102
aI109
aI218
aI192
aI195
aI150
aI158
aI44
aI19
aI101
aa(lp32
I245
aI109
aI218
aI118
aI225
aI29
aI204
aI83
aI258
aI60
aI29
aI107
aI19
aI109
aI111
aI76
aI19
aI57
aI79
aI57
aa(lp33
I245
aI109
aI218
aI118
aI225
aI29
aI204
aI83
aI258
aI60
aI29
aI107
aI19
aI109
aI111
aI76
aI19
aI57
aI145
aI56
aa(lp34
I245
aI109
aI218
aI118
aI225
aI29
aI204
aI83
aI258
aI60
aI29
aI107
aI19
aI109
aI111
aI76
aI19
aI57
aI228
aa(lp35
I245
aI109
aI218
aI118
aI225
aI29
aI204
aI83
aI258
aI60
aI29
aI107
aI19
aI109
aI111
aI76
aI19
aI57
aI82
aI56
aa(lp36
I245
aI109
aI218
aI118
aI225
aI29
aI204
aI83
aI258
aI60
aI29
aI107
aI19
aI109
aI111
aI76
aI19
aI9
aI79
aI57
aa(lp37
I245
aI109
aI218
aI118
aI225
aI29
aI204
aI83
aI258
aI60
aI29
aI107
aI19
aI109
aI111
aI76
aI19
aI9
aI145
aI56
aa(lp38
I245
aI109
aI218
aI118
aI225
aI29
aI204
aI83
aI258
aI60
aI29
aI107
aI19
aI109
aI111
aI76
aI19
aI9
aI228
aa(lp39
I245
aI109
aI218
aI118
aI225
aI29
aI204
aI83
aI258
aI60
aI29
aI107
aI19
aI109
aI111
aI76
aI19
aI9
aI82
aI56
aa(lp40
I245
aI109
aI218
aI118
aI225
aI29
aI204
aI83
aI258
aI60
aI29
aI107
aI19
aI109
aI111
aI76
aI19
aI11
aI79
aI57
aa(lp41
I245
aI109
aI218
aI118
aI225
aI29
aI204
aI83
aI258
aI60
aI29
aI107
aI19
aI109
aI111
aI76
aI19
aI11
aI145
aI56
aa(lp42
I245
aI109
aI218
aI118
aI225
aI29
aI204
aI83
aI258
aI60
aI29
aI107
aI19
aI109
aI111
aI76
aI19
aI11
aI228
aa(lp43
I245
aI109
aI218
aI118
aI225
aI29
aI204
aI83
aI258
aI60
aI29
aI107
aI19
aI109
aI111
aI76
aI19
aI11
aI82
aI56
aa(lp44
I245
aI109
aI218
aI118
aI225
aI29
aI204
aI83
aI258
aI60
aI29
aI107
aI19
aI109
aI111
aI76
aI19
aI12
aI79
aI57
aa(lp45
I245
aI109
aI218
aI118
aI225
aI29
aI204
aI83
aI258
aI60
aI29
aI107
aI19
aI109
aI111
aI76
aI19
aI12
aI145
aI56
aa(lp46
I245
aI109
aI218
aI118
aI225
aI29
aI204
aI83
aI258
aI60
aI29
aI107
aI19
aI109
aI111
aI76
aI19
aI12
aI228
aa(lp47
I245
aI109
aI218
aI118
aI225
aI29
aI204
aI83
aI258
aI60
aI29
aI107
aI19
aI109
aI111
aI76
aI19
aI12
aI82
aI56
aa(lp48
I245
aI109
aI218
aI118
aI225
aI29
aI204
aI83
aI258
aI60
aI29
aI107
aI19
aI109
aI111
aI76
aI19
aI13
aI79
aI57
aa(lp49
I245
aI109
aI218
aI118
aI225
aI29
aI204
aI83
aI258
aI60
aI29
aI107
aI19
aI109
aI111
aI76
aI19
aI13
aI145
aI56
aa(lp50
I245
aI109
aI218
aI118
aI225
aI29
aI204
aI83
aI258
aI60
aI29
aI107
aI19
aI109
aI111
aI76
aI19
aI13
aI228
aa(lp51
I245
aI109
aI218
aI118
aI225
aI29
aI204
aI83
aI258
aI60
aI29
aI107
aI19
aI109
aI111
aI76
aI19
aI13
aI82
aI56
aa(lp52
I245
aI109
aI218
aI118
aI225
aI29
aI204
aI83
aI258
aI60
aI29
aI107
aI19
aI109
aI111
aI76
aI19
aI14
aI79
aI57
aa(lp53
I245
aI109
aI218
aI118
aI225
aI29
aI204
aI83
aI258
aI60
aI29
aI107
aI19
aI109
aI111
aI76
aI19
aI14
aI145
aI56
aa(lp54
I245
aI109
aI218
aI118
aI225
aI29
aI204
aI83
aI258
aI60
aI29
aI107
aI19
aI109
aI111
aI76
aI19
aI14
aI228
aa(lp55
I245
aI109
aI218
aI118
aI225
aI29
aI204
aI83
aI258
aI60
aI29
aI107
aI19
aI109
aI111
aI76
aI19
aI14
aI82
aI56
aa(lp56
I245
aI109
aI218
aI118
aI225
aI29
aI204
aI83
aI258
aI60
aI29
aI107
aI19
aI109
aI111
aI76
aI19
aI57
aI9
aI243
aa(lp57
I245
aI109
aI218
aI118
aI225
aI29
aI204
aI83
aI258
aI60
aI29
aI107
aI19
aI109
aI111
aI76
aI19
aI57
aI11
aI244
aa(lp58
I245
aI109
aI218
aI118
aI225
aI29
aI204
aI83
aI258
aI60
aI29
aI107
aI19
aI109
aI111
aI76
aI19
aI57
aI180
aI125
aa(lp59
I245
aI109
aI218
aI118
aI225
aI29
aI204
aI83
aI258
aI60
aI29
aI107
aI19
aI109
aI111
aI76
aI19
aI57
aI238
aI125
aa(lp60
I245
aI109
aI218
aI118
aI225
aI29
aI204
aI83
aI258
aI60
aI29
aI107
aI19
aI109
aI111
aI76
aI19
aI14
aI9
aI243
aa(lp61
I245
aI109
aI218
aI118
aI225
aI29
aI204
aI83
aI258
aI60
aI29
aI107
aI19
aI109
aI111
aI76
aI19
aI14
aI11
aI244
aa(lp62
I245
aI109
aI218
aI118
aI225
aI29
aI204
aI83
aI258
aI60
aI29
aI107
aI19
aI109
aI111
aI76
aI19
aI14
aI180
aI125
aa(lp63
I245
aI109
aI218
aI118
aI225
aI29
aI204
aI83
aI258
aI60
aI29
aI107
aI19
aI109
aI111
aI76
aI19
aI14
aI238
aI125
aa(lp64
I245
aI109
aI218
aI118
aI225
aI29
aI204
aI83
aI258
aI60
aI29
aI107
aI19
aI109
aI111
aI76
aI19
aI15
aI9
aI243
aa(lp65
I245
aI109
aI218
aI118
aI225
aI29
aI204
aI83
aI258
aI60
aI29
aI107
aI19
aI109
aI111
aI76
aI19
aI15
aI11
aI244
aa(lp66
I245
aI109
aI218
aI118
aI225
aI29
aI204
aI83
aI258
aI60
aI29
aI107
aI19
aI109
aI111
aI76
aI19
aI15
aI180
aI125
aa(lp67
I245
aI109
aI218
aI118
aI225
aI29
aI204
aI83
aI258
aI60
aI29
aI107
aI19
aI109
aI111
aI76
aI19
aI15
aI238
aI125
aa(lp68
I245
aI109
aI218
aI118
aI225
aI29
aI204
aI83
aI258
aI60
aI29
aI107
aI19
aI109
aI111
aI76
aI19
aI16
aI9
aI243
aa(lp69
I245
aI109
aI218
aI118
aI225
aI29
aI204
aI83
aI258
aI60
aI29
aI107
aI19
aI109
aI111
aI76
aI19
aI16
aI11
aI244
aa(lp70
I245
aI109
aI218
aI118
aI225
aI29
aI204
aI83
aI258
aI60
aI29
aI107
aI19
aI109
aI111
aI76
aI19
aI16
aI180
aI125
aa(lp71
I245
aI109
aI218
aI118
aI225
aI29
aI204
aI83
aI258
aI60
aI29
aI107
aI19
aI109
aI111
aI76
aI19
aI16
aI238
aI125
aa(lp72
I245
aI109
aI218
aI118
aI225
aI29
aI204
aI83
aI258
aI60
aI29
aI107
aI19
aI109
aI111
aI76
aI19
aI17
aI9
aI243
aa(lp73
I245
aI109
aI218
aI118
aI225
aI29
aI204
aI83
aI258
aI60
aI29
aI107
aI19
aI109
aI111
aI76
aI19
aI17
aI11
aI244
aa(lp74
I245
aI109
aI218
aI118
aI225
aI29
aI204
aI83
aI258
aI60
aI29
aI107
aI19
aI109
aI111
aI76
aI19
aI17
aI180
aI125
aa(lp75
I245
aI109
aI218
aI118
aI225
aI29
aI204
aI83
aI258
aI60
aI29
aI107
aI19
aI109
aI111
aI76
aI19
aI17
aI238
aI125
aa(lp76
I245
aI109
aI218
aI118
aI225
aI29
aI204
aI83
aI258
aI60
aI29
aI107
aI19
aI109
aI111
aI76
aI19
aI18
aI9
aI243
aa(lp77
I245
aI109
aI218
aI118
aI225
aI29
aI204
aI83
aI258
aI60
aI29
aI107
aI19
aI109
aI111
aI76
aI19
aI18
aI11
aI244
aa(lp78
I245
aI109
aI218
aI118
aI225
aI29
aI204
aI83
aI258
aI60
aI29
aI107
aI19
aI109
aI111
aI76
aI19
aI18
aI180
aI125
aa(lp79
I245
aI109
aI218
aI118
aI225
aI29
aI204
aI83
aI258
aI60
aI29
aI107
aI19
aI109
aI111
aI76
aI19
aI18
aI238
aI125
aa(lp80
I245
aI109
aI218
aI118
aI225
aI29
aI204
aI83
aI258
aI60
aI29
aI107
aI19
aI109
aI111
aI76
aI19
aI10
aI9
aI243
aa(lp81
I245
aI109
aI218
aI118
aI225
aI29
aI204
aI83
aI258
aI60
aI29
aI107
aI19
aI109
aI111
aI76
aI19
aI10
aI11
aI244
aa(lp82
I245
aI109
aI218
aI118
aI225
aI29
aI204
aI83
aI258
aI60
aI29
aI107
aI19
aI109
aI111
aI76
aI19
aI10
aI180
aI125
aa(lp83
I245
aI109
aI218
aI118
aI225
aI29
aI204
aI83
aI258
aI60
aI29
aI107
aI19
aI109
aI111
aI76
aI19
aI10
aI238
aI125
aa(lp84
I95
aI257
aI97
aI8
aI65
aI257
aI116
aI22
aI132
aI178
aI19
aI256
aa(lp85
I95
aI257
aI97
aI8
aI65
aI257
aI116
aI22
aI132
aI178
aI19
aI95
aa(lp86
I95
aI257
aI97
aI8
aI65
aI257
aI116
aI22
aI132
aI178
aI19
aI150
aI54
aa(lp87
I95
aI257
aI97
aI8
aI65
aI257
aI116
aI22
aI132
aI178
aI19
aI209
aa(lp88
I95
aI257
aI97
aI8
aI65
aI257
aI116
aI22
aI132
aI178
aI19
aI91
aa(lp89
I95
aI257
aI97
aI8
aI65
aI257
aI116
aI22
aI132
aI178
aI19
aI146
aa(lp90
I95
aI257
aI97
aI8
aI65
aI257
aI116
aI22
aI132
aI178
aI19
aI68
aa(lp91
I95
aI257
aI97
aI8
aI65
aI257
aI116
aI22
aI132
aI178
aI19
aI66
aI95
aa(lp92
I65
aI158
aI44
aI95
aI173
aI185
aI8
aI173
aI124
aI234
aI8
aI190
aI29
aI184
aI8
aI215
aI8
aI78
aI19
aI256
aa(lp93
I65
aI158
aI44
aI95
aI173
aI185
aI8
aI173
aI124
aI234
aI8
aI190
aI29
aI184
aI8
aI215
aI8
aI78
aI19
aI95
aa(lp94
I65
aI158
aI44
aI95
aI173
aI185
aI8
aI173
aI124
aI234
aI8
aI190
aI29
aI184
aI8
aI215
aI8
aI78
aI19
aI150
aI54
aa(lp95
I65
aI158
aI44
aI95
aI173
aI185
aI8
aI173
aI124
aI234
aI8
aI190
aI29
aI184
aI8
aI215
aI8
aI78
aI19
aI209
aa(lp96
I65
aI158
aI44
aI95
aI173
aI185
aI8
aI173
aI124
aI234
aI8
aI190
aI29
aI184
aI8
aI215
aI8
aI78
aI19
aI91
aa(lp97
I65
aI158
aI44
aI95
aI173
aI185
aI8
aI173
aI124
aI234
aI8
aI190
aI29
aI184
aI8
aI215
aI8
aI78
aI19
aI146
aa(lp98
I65
aI158
aI44
aI95
aI173
aI185
aI8
aI173
aI124
aI234
aI8
aI190
aI29
aI184
aI8
aI215
aI8
aI78
aI19
aI68
aa(lp99
I65
aI158
aI44
aI95
aI173
aI185
aI8
aI173
aI124
aI234
aI8
aI190
aI29
aI184
aI8
aI215
aI8
aI78
aI19
aI66
aI95
aa(lp100
I65
aI218
aI158
aI44
aI95
aI219
aI161
aI74
aI19
aI256
aa(lp101
I65
aI218
aI158
aI44
aI95
aI219
aI161
aI74
aI19
aI95
aa(lp102
I65
aI218
aI158
aI44
aI95
aI219
aI161
aI74
aI19
aI150
aI54
aa(lp103
I65
aI218
aI158
aI44
aI95
aI219
aI161
aI74
aI19
aI209
aa(lp104
I65
aI218
aI158
aI44
aI95
aI219
aI161
aI74
aI19
aI91
aa(lp105
I65
aI218
aI158
aI44
aI95
aI219
aI161
aI74
aI19
aI146
aa(lp106
I65
aI218
aI158
aI44
aI95
aI219
aI161
aI74
aI19
aI68
aa(lp107
I65
aI218
aI158
aI44
aI95
aI219
aI161
aI74
aI19
aI66
aI95
aa(lp108
I65
aI158
aI44
aI95
aI241
aI19
aI256
aa(lp109
I65
aI158
aI44
aI95
aI241
aI19
aI95
aa(lp110
I65
aI158
aI44
aI95
aI241
aI19
aI150
aI54
aa(lp111
I65
aI158
aI44
aI95
aI241
aI19
aI209
aa(lp112
I65
aI158
aI44
aI95
aI241
aI19
aI91
aa(lp113
I65
aI158
aI44
aI95
aI241
aI19
aI146
aa(lp114
I65
aI158
aI44
aI95
aI241
aI19
aI68
aa(lp115
I65
aI158
aI44
aI95
aI241
aI19
aI66
aI95
aa(lp116
I246
aI46
aI242
aI45
aI108
aI19
aa(lp117
I102
aI65
aI242
aI140
aI84
aI8
aI89
aI23
aI85
aI99
aI19
aa(lp118
I46
aI257
aI88
aI20
aI168
aI226
aI142
aI205
aI8
aI163
aI19
aa(lp119
I65
aI257
aI95
aI20
aI193
aI42
aI8
aI41
aI8
aI164
aI19
aa(lp120
I46
aI257
aI213
aI133
aI22
aI258
aI169
aI123
aI19
aa(lp121
I46
aI257
aI88
aI133
aI20
aI182
aI8
aI181
aI19
aa(lp122
I46
aI257
aI33
aI20
aI135
aI226
aI86
aI63
aI19
aa(lp123
I103
aI95
aI28
aI155
aI173
aI8
aI115
aI200
aI148
aI7
aI46
aI103
aI235
aI108
aI83
aI111
aI19
aa(lp124
I242
aI95
aI28
aI155
aI173
aI8
aI115
aI200
aI148
aI7
aI46
aI242
aI235
aI108
aI83
aI111
aI19
aa.