(lp0
(lp1
a(lp2
a(lp3
a(lp4
a(lp5
a(lp6
I153
aI154
aI6
aI204
aI259
aI33
aI239
aI225
aI44
aI6
aI225
aI44
aI111
aI149
aI37
aI256
aI20
aI151
aI5
aI109
aI111
aI182
aI169
aI9
aI121
aI44
aI28
aI52
aI9
aI62
aag6
ag6
ag6
a(lp7
I153
aI5
aI220
aI91
aI6
aI21
aI128
aI152
aI165
aI26
aI224
aI219
aI109
aI111
aI21
aI91
aI44
aI6
aI109
aI111
aI221
aI121
aI180
aI133
aI107
aI201
aI6
aI220
aI250
aI244
aI33
aI100
aI229
aI215
aI229
aI259
aI23
aI103
aI109
aI47
aI99
aI259
aI131
aI141
aI140
aag7
ag7
ag7
ag7
ag7
ag7
ag7
ag7
a(lp8
I153
aI154
aI6
aI104
aI27
aI213
aI219
aI259
aI67
aI224
aI109
aI111
aI21
aI209
aI44
aI6
aI109
aI111
aI221
aI121
aI180
aI133
aI107
aI201
aag8
ag8
ag8
ag8
ag8
a(lp9
I220
aI91
aI6
aI35
aI122
aI223
aI47
aI197
aI259
aI176
aI6
aI259
aI198
aI234
aI109
aI232
aI6
aI244
aI96
aI226
aI152
aI91
aI192
aI107
aI162
aI126
aI236
aag9
ag9
ag9
ag9
ag9
a(lp10
I153
aI111
aI113
aI20
aI6
aI219
aI143
aI38
aI240
aI63
aI84
aI259
aI6
aI204
aI76
aI5
aI109
aI148
aI172
aI6
aI244
aI96
aI226
aI152
aI91
aI192
aI107
aI162
aI126
aI236
aag10
ag10
ag10
ag10
ag10
ag10
a(lp11
I153
aI5
aI220
aI91
aI6
aI220
aI182
aI77
aI6
aI113
aI111
aI106
aI84
aI21
aI75
aI229
aI38
aI22
aI229
aI177
aI210
aI21
aI197
aI6
aI220
aI250
aI109
aI47
aI82
aI9
aI51
aI114
aI117
aI107
aI13
aI58
aag11
ag11
ag11
ag11
ag11
a(lp12
I153
aI220
aI240
aI203
aI9
aI149
aI91
aI6
aI252
aI38
aI41
aI105
aI223
aI47
aI51
aI9
aI82
aI78
aI204
aI219
aI259
aI47
aI26
aI82
aI235
aI260
aI117
aI78
aI6
aI35
aI109
aI5
aI162
aI120
aI228
aI111
aI159
aI13
aI58
aag12
ag12
ag12
ag12
ag12
ag12
a(lp13
I220
aI91
aI219
aI259
aI118
aI23
aI134
aI180
aI6
aI151
aI113
aI111
aI240
aI169
aI28
aI146
aI101
aI164
aI6
aI35
aI110
aI244
aI96
aI21
aI251
aI185
aI152
aI233
aI134
aI180
aI219
aI244
aI33
aI211
aI260
aI56
aI252
aI130
aag13
ag13
ag13
ag13
ag13
a(lp14
I153
aI104
aI196
aI7
aI67
aI96
aI222
aI163
aI75
aI6
aI75
aI111
aI106
aI84
aI221
aI50
aI229
aI53
aI221
aI178
aI3
aI179
aI53
aI4
aI152
aI221
aI173
aI6
aI109
aI95
aI74
aI107
aI115
aI2
aI201
aI229
aI73
aI25
aI162
aI174
aI136
aI21
aI208
aI178
aI190
aag14
ag14
ag14
a(lp15
I220
aI91
aI6
aI104
aI27
aI211
aI221
aI56
aI81
aI113
aI238
aI6
aI220
aI250
aI109
aI95
aI226
aI152
aI91
aI192
aI30
aI186
aI8
aI152
aI94
aI56
aI48
aI38
aI255
aI1
aag15
ag15
ag15
ag15
ag15
a(lp16
I153
aI5
aI220
aI232
aI37
aI6
aI21
aI128
aI152
aI101
aI164
aI124
aI229
aI49
aI175
aI188
aI158
aI39
aI132
aI222
aI59
aI6
aI220
aI250
aI109
aI95
aI226
aI152
aI91
aI192
aI30
aI186
aI6
aI226
aI152
aI94
aI56
aI48
aI38
aI255
aI1
aag16
ag16
ag16
a(lp17
I153
aI6
aI220
aI91
aI6
aI223
aI198
aI38
aI71
aI6
aI75
aI111
aI106
aI84
aI221
aI50
aI229
aI53
aI221
aI178
aI3
aI179
aI53
aI4
aI152
aI221
aI173
aI6
aI109
aI95
aI74
aI107
aI115
aI2
aI201
aI229
aI73
aI25
aI162
aI174
aI136
aI21
aI208
aI178
aI190
aag17
ag17
ag17
ag17
ag17
a(lp18
I153
aI104
aI196
aI6
aI223
aI67
aI96
aI222
aI163
aI75
aI6
aI75
aI111
aI106
aI84
aI221
aI50
aI229
aI53
aI221
aI178
aI3
aI179
aI53
aI4
aI152
aI221
aI173
aI6
aI109
aI95
aI74
aI107
aI115
aI2
aI201
aI229
aI73
aI25
aI162
aI174
aI136
aI21
aI208
aI178
aI190
aag18
ag18
ag18
a(lp19
I258
aI6
aI104
aI40
aI223
aI26
aI96
aI243
aI6
aI205
aI56
aI47
aI138
aI222
aI242
aI193
aI20
aI35
aI109
aI5
aI164
aI47
aI70
aI9
aI181
aI189
aI222
aI243
aI158
aag19
ag19
ag19
ag19
ag19
a(lp20
I153
aI220
aI21
aI167
aI6
aI223
aI67
aI96
aI243
aI6
aI109
aI95
aI21
aI11
aI257
aI191
aI243
aI219
aI56
aI47
aI240
aI70
aI189
aI84
aI158
aag20
ag20
ag20
a(lp21
I104
aI47
aI99
aI259
aI34
aI221
aI109
aI174
aI219
aI259
aI241
aI229
aI46
aa(lp22
I66
aI259
aI96
aI31
aI175
aI155
aI93
aI150
aI219
aI244
aI47
aI90
aI24
aI30
aI254
aI230
aI155
aI20
aa(lp23
I212
aI104
aI47
aI34
aI21
aI170
aI84
aI260
aI207
aI147
aI139
aI35
aI13
aI168
aa(lp24
I258
aI6
aI104
aI96
aI221
aI195
aI253
aI135
aI150
aI6
aI248
aI47
aI104
aI65
aI113
aI107
aI260
aI200
aa(lp25
I211
aI104
aI47
aI6
aI123
aI135
aI199
aI259
aI162
aI171
aI125
aa(lp26
I211
aI5
aI104
aI47
aI88
aI21
aI184
aI9
aI183
aI68
aI84
aI259
aI193
aI150
aI227
aI162
aI158
aI214
aa(lp27
I211
aI6
aI104
aI47
aI34
aI21
aI137
aI147
aI139
aI35
aI13
aI168
aa(lp28
I152
aI55
aI259
aI47
aI237
aI109
aI84
aI260
aI157
aI175
aI9
aI117
aI202
aI6
aI123
aI135
aI43
aI29
aI32
aI84
aI259
aI193
aI36
aI239
aI162
aI158
aI214
aa(lp29
I152
aI55
aI259
aI47
aI237
aI109
aI84
aI260
aI157
aI175
aI9
aI117
aI202
aI6
aI123
aI135
aI43
aI29
aI32
aI84
aI259
aI193
aI36
aI239
aI162
aI158
aI214
aa.