(lp0
(lp1
I247
aI44
aI152
aI54
aI33
aI259
aI239
aI20
aI109
aa(lp2
I247
aI44
aI152
aI54
aI33
aI259
aI239
aI20
aI259
aa(lp3
I247
aI44
aI152
aI54
aI33
aI259
aI239
aI20
aI259
aI25
aa(lp4
I247
aI44
aI152
aI54
aI33
aI259
aI239
aI20
aI249
aI72
aa(lp5
I247
aI44
aI152
aI54
aI33
aI259
aI239
aI20
aa(lp6
I247
aI44
aI152
aI54
aI33
aI259
aI239
aI20
aI161
aa(lp7
I247
aI44
aI152
aI54
aI33
aI259
aI239
aI20
aI160
aI45
aa(lp8
I247
aI44
aI152
aI54
aI33
aI259
aI239
aI20
aI219
aI156
aa(lp9
I247
aI44
aI152
aI54
aI33
aI259
aI239
aI20
aI148
aa(lp10
I96
aI259
aI98
aI23
aI109
aI20
aI258
aa(lp11
I96
aI259
aI98
aI23
aI109
aI20
aI60
aa(lp12
I96
aI259
aI98
aI23
aI109
aI20
aI256
aI119
aa(lp13
I96
aI259
aI98
aI23
aI109
aI20
aI91
aa(lp14
I96
aI259
aI98
aI23
aI109
aI20
aI47
aa(lp15
I96
aI259
aI98
aI23
aI109
aI20
aI98
aI152
aa(lp16
I96
aI259
aI98
aI23
aI109
aI20
aI152
aI55
aa(lp17
I96
aI259
aI98
aI23
aI109
aI20
aI92
aa(lp18
I96
aI259
aI98
aI23
aI109
aI20
aI118
aI23
aa(lp19
I96
aI259
aI98
aI23
aI109
aI20
aI148
aa(lp20
I96
aI259
aI98
aI23
aI109
aI20
aI145
aa(lp21
I96
aI259
aI98
aI23
aI109
aI20
aI97
aa(lp22
I96
aI259
aI98
aI23
aI109
aI20
aI69
aa(lp23
I96
aI259
aI98
aI23
aI109
aI20
aI67
aI96
aa(lp24
I96
aI259
aI98
aI23
aI109
aI20
aI67
aI118
aa(lp25
I103
aI111
aI221
aI194
aI197
aI152
aI160
aI45
aI20
aI258
aI5
aI91
aa(lp26
I103
aI111
aI221
aI194
aI197
aI152
aI160
aI45
aI20
aI240
aI91
aa(lp27
I103
aI111
aI221
aI194
aI197
aI152
aI160
aI45
aI20
aI154
aa(lp28
I103
aI111
aI221
aI194
aI197
aI152
aI160
aI45
aI20
aI204
aI204
aa(lp29
I103
aI111
aI221
aI194
aI197
aI152
aI160
aI45
aI20
aI148
aI112
aa(lp30
I103
aI111
aI221
aI194
aI197
aI152
aI160
aI45
aI20
aI148
aI172
aa(lp31
I103
aI111
aI221
aI194
aI197
aI152
aI160
aI45
aI20
aI148
aI5
aI149
aI91
aa(lp32
I103
aI111
aI221
aI194
aI197
aI152
aI160
aI45
aI20
aI240
aI37
aa(lp33
I103
aI111
aI221
aI194
aI197
aI152
aI160
aI45
aI20
aI129
aa(lp34
I103
aI111
aI221
aI194
aI197
aI152
aI160
aI45
aI20
aI37
aa(lp35
I103
aI111
aI221
aI194
aI197
aI152
aI160
aI45
aI20
aI217
aa(lp36
I103
aI111
aI221
aI194
aI197
aI152
aI160
aI45
aI20
aI102
aa(lp37
I103
aI111
aI221
aI194
aI197
aI152
aI160
aI45
aI20
aI116
aa(lp38
I247
aI111
aI221
aI120
aI228
aI30
aI206
aI84
aI260
aI61
aI30
aI108
aI20
aI111
aI113
aI77
aI20
aI58
aI80
aI58
aI58
aI147
aI57
aI58
aI231
aI58
aI83
aI57
aa(lp39
I247
aI111
aI221
aI120
aI228
aI30
aI206
aI84
aI260
aI61
aI30
aI108
aI20
aI111
aI113
aI77
aI20
aI10
aI80
aI58
aI10
aI147
aI57
aI10
aI231
aI10
aI83
aI57
aa(lp40
I247
aI111
aI221
aI120
aI228
aI30
aI206
aI84
aI260
aI61
aI30
aI108
aI20
aI111
aI113
aI77
aI20
aI12
aI80
aI58
aI12
aI147
aI57
aI12
aI231
aI12
aI83
aI57
aa(lp41
I247
aI111
aI221
aI120
aI228
aI30
aI206
aI84
aI260
aI61
aI30
aI108
aI20
aI111
aI113
aI77
aI20
aI13
aI80
aI58
aI13
aI147
aI57
aI13
aI231
aI13
aI83
aI57
aa(lp42
I247
aI111
aI221
aI120
aI228
aI30
aI206
aI84
aI260
aI61
aI30
aI108
aI20
aI111
aI113
aI77
aI20
aI14
aI80
aI58
aI14
aI147
aI57
aI14
aI231
aI14
aI83
aI57
aa(lp43
I247
aI111
aI221
aI120
aI228
aI30
aI206
aI84
aI260
aI61
aI30
aI108
aI20
aI111
aI113
aI77
aI20
aI15
aI80
aI58
aI15
aI147
aI57
aI15
aI231
aI15
aI83
aI57
aa(lp44
I247
aI111
aI221
aI120
aI228
aI30
aI206
aI84
aI260
aI61
aI30
aI108
aI20
aI111
aI113
aI77
aI20
aI58
aI10
aI245
aI58
aI12
aI246
aI58
aI182
aI127
aI58
aI240
aI127
aa(lp45
I247
aI111
aI221
aI120
aI228
aI30
aI206
aI84
aI260
aI61
aI30
aI108
aI20
aI111
aI113
aI77
aI20
aI15
aI10
aI245
aI15
aI12
aI246
aI15
aI182
aI127
aI15
aI240
aI127
aa(lp46
I247
aI111
aI221
aI120
aI228
aI30
aI206
aI84
aI260
aI61
aI30
aI108
aI20
aI111
aI113
aI77
aI20
aI16
aI10
aI245
aI16
aI12
aI246
aI16
aI182
aI127
aI16
aI240
aI127
aa(lp47
I247
aI111
aI221
aI120
aI228
aI30
aI206
aI84
aI260
aI61
aI30
aI108
aI20
aI111
aI113
aI77
aI20
aI17
aI10
aI245
aI17
aI12
aI246
aI17
aI182
aI127
aI17
aI240
aI127
aa(lp48
I247
aI111
aI221
aI120
aI228
aI30
aI206
aI84
aI260
aI61
aI30
aI108
aI20
aI111
aI113
aI77
aI20
aI18
aI10
aI245
aI18
aI12
aI246
aI18
aI182
aI127
aI18
aI240
aI127
aa(lp49
I247
aI111
aI221
aI120
aI228
aI30
aI206
aI84
aI260
aI61
aI30
aI108
aI20
aI111
aI113
aI77
aI20
aI19
aI10
aI245
aI19
aI12
aI246
aI19
aI182
aI127
aI19
aI240
aI127
aa(lp50
I247
aI111
aI221
aI120
aI228
aI30
aI206
aI84
aI260
aI61
aI30
aI108
aI20
aI111
aI113
aI77
aI20
aI11
aI10
aI245
aI11
aI12
aI246
aI11
aI182
aI127
aI11
aI240
aI127
aa(lp51
I96
aI259
aI98
aI9
aI66
aI259
aI118
aI23
aI134
aI180
aI20
aI258
aa(lp52
I96
aI259
aI98
aI9
aI66
aI259
aI118
aI23
aI134
aI180
aI20
aI96
aa(lp53
I96
aI259
aI98
aI9
aI66
aI259
aI118
aI23
aI134
aI180
aI20
aI152
aI55
aa(lp54
I96
aI259
aI98
aI9
aI66
aI259
aI118
aI23
aI134
aI180
aI20
aI211
aa(lp55
I96
aI259
aI98
aI9
aI66
aI259
aI118
aI23
aI134
aI180
aI20
aI92
aa(lp56
I96
aI259
aI98
aI9
aI66
aI259
aI118
aI23
aI134
aI180
aI20
aI60
aa(lp57
I96
aI259
aI98
aI9
aI66
aI259
aI118
aI23
aI134
aI180
aI20
aI148
aa(lp58
I96
aI259
aI98
aI9
aI66
aI259
aI118
aI23
aI134
aI180
aI20
aI69
aa(lp59
I96
aI259
aI98
aI9
aI66
aI259
aI118
aI23
aI134
aI180
aI20
aI67
aI96
aa(lp60
I96
aI259
aI98
aI9
aI66
aI259
aI118
aI23
aI134
aI180
aI20
aI67
aI118
aa(lp61
I66
aI160
aI45
aI96
aI175
aI187
aI9
aI175
aI126
aI236
aI9
aI192
aI30
aI186
aI9
aI218
aI9
aI79
aI20
aI258
aa(lp62
I66
aI160
aI45
aI96
aI175
aI187
aI9
aI175
aI126
aI236
aI9
aI192
aI30
aI186
aI9
aI218
aI9
aI79
aI20
aI96
aa(lp63
I66
aI160
aI45
aI96
aI175
aI187
aI9
aI175
aI126
aI236
aI9
aI192
aI30
aI186
aI9
aI218
aI9
aI79
aI20
aI152
aI55
aa(lp64
I66
aI160
aI45
aI96
aI175
aI187
aI9
aI175
aI126
aI236
aI9
aI192
aI30
aI186
aI9
aI218
aI9
aI79
aI20
aI211
aa(lp65
I66
aI160
aI45
aI96
aI175
aI187
aI9
aI175
aI126
aI236
aI9
aI192
aI30
aI186
aI9
aI218
aI9
aI79
aI20
aI92
aa(lp66
I66
aI160
aI45
aI96
aI175
aI187
aI9
aI175
aI126
aI236
aI9
aI192
aI30
aI186
aI9
aI218
aI9
aI79
aI20
aI60
aa(lp67
I66
aI160
aI45
aI96
aI175
aI187
aI9
aI175
aI126
aI236
aI9
aI192
aI30
aI186
aI9
aI218
aI9
aI79
aI20
aI148
aa(lp68
I66
aI160
aI45
aI96
aI175
aI187
aI9
aI175
aI126
aI236
aI9
aI192
aI30
aI186
aI9
aI218
aI9
aI79
aI20
aI69
aa(lp69
I66
aI160
aI45
aI96
aI175
aI187
aI9
aI175
aI126
aI236
aI9
aI192
aI30
aI186
aI9
aI218
aI9
aI79
aI20
aI67
aI96
aa(lp70
I66
aI160
aI45
aI96
aI175
aI187
aI9
aI175
aI126
aI236
aI9
aI192
aI30
aI186
aI9
aI218
aI9
aI79
aI20
aI67
aI118
aa(lp71
I66
aI221
aI160
aI45
aI96
aI222
aI163
aI75
aI20
aI258
aa(lp72
I66
aI221
aI160
aI45
aI96
aI222
aI163
aI75
aI20
aI96
aa(lp73
I66
aI221
aI160
aI45
aI96
aI222
aI163
aI75
aI20
aI152
aI55
aa(lp74
I66
aI221
aI160
aI45
aI96
aI222
aI163
aI75
aI20
aI211
aa(lp75
I66
aI221
aI160
aI45
aI96
aI222
aI163
aI75
aI20
aI92
aa(lp76
I66
aI221
aI160
aI45
aI96
aI222
aI163
aI75
aI20
aI60
aa(lp77
I66
aI221
aI160
aI45
aI96
aI222
aI163
aI75
aI20
aI148
aa(lp78
I66
aI221
aI160
aI45
aI96
aI222
aI163
aI75
aI20
aI69
aa(lp79
I66
aI221
aI160
aI45
aI96
aI222
aI163
aI75
aI20
aI67
aI96
aa(lp80
I66
aI221
aI160
aI45
aI96
aI222
aI163
aI75
aI20
aI67
aI118
aa(lp81
I66
aI160
aI45
aI96
aI243
aI20
aI258
aa(lp82
I66
aI160
aI45
aI96
aI243
aI20
aI96
aa(lp83
I66
aI160
aI45
aI96
aI243
aI20
aI152
aI55
aa(lp84
I66
aI160
aI45
aI96
aI243
aI20
aI211
aa(lp85
I66
aI160
aI45
aI96
aI243
aI20
aI92
aa(lp86
I66
aI160
aI45
aI96
aI243
aI20
aI60
aa(lp87
I66
aI160
aI45
aI96
aI243
aI20
aI148
aa(lp88
I66
aI160
aI45
aI96
aI243
aI20
aI69
aa(lp89
I66
aI160
aI45
aI96
aI243
aI20
aI67
aI96
aa(lp90
I66
aI160
aI45
aI96
aI243
aI20
aI67
aI118
aa(lp91
I248
aI47
aI244
aI46
aI109
aI20
aa(lp92
I103
aI66
aI244
aI142
aI85
aI9
aI90
aI24
aI86
aI100
aI20
aa(lp93
I47
aI259
aI89
aI21
aI170
aI229
aI144
aI207
aI9
aI165
aI20
aa(lp94
I66
aI259
aI96
aI21
aI195
aI43
aI9
aI42
aI9
aI166
aI20
aa(lp95
I47
aI259
aI216
aI135
aI23
aI260
aI171
aI125
aI20
aa(lp96
I47
aI259
aI89
aI135
aI21
aI184
aI9
aI183
aI20
aa(lp97
I47
aI259
aI34
aI21
aI137
aI229
aI87
aI64
aI20
aa(lp98
I104
aI96
aI29
aI157
aI175
aI9
aI117
aI202
aI150
aI6
aI47
aI104
aI237
aI109
aI84
aI113
aI20
aa(lp99
I244
aI96
aI29
aI157
aI175
aI9
aI117
aI202
aI150
aI6
aI47
aI244
aI237
aI109
aI84
aI113
aI20
aa.